target datalayout = "e-m:e-p270:32:32-p271:32:32-p272:64:64-i64:64-i128:128-f80:128-n8:16:32:64-S128"
target triple = "x86_64-pc-linux-gnu"

%struct.JNINativeInterface_ = type { ptr, ptr, ptr, ptr, ptr, ptr, ptr, ptr, ptr, ptr, ptr, ptr, ptr, ptr, ptr, ptr, ptr, ptr, ptr, ptr, ptr, ptr, ptr, ptr, ptr, ptr, ptr, ptr, ptr, ptr, ptr, ptr, ptr, ptr, ptr, ptr, ptr, ptr, ptr, ptr, ptr, ptr, ptr, ptr, ptr, ptr, ptr, ptr, ptr, ptr, ptr, ptr, ptr, ptr, ptr, ptr, ptr, ptr, ptr, ptr, ptr, ptr, ptr, ptr, ptr, ptr, ptr, ptr, ptr, ptr, ptr, ptr, ptr, ptr, ptr, ptr, ptr, ptr, ptr, ptr, ptr, ptr, ptr, ptr, ptr, ptr, ptr, ptr, ptr, ptr, ptr, ptr, ptr, ptr, ptr, ptr, ptr, ptr, ptr, ptr, ptr, ptr, ptr, ptr, ptr, ptr, ptr, ptr, ptr, ptr, ptr, ptr, ptr, ptr, ptr, ptr, ptr, ptr, ptr, ptr, ptr, ptr, ptr, ptr, ptr, ptr, ptr, ptr, ptr, ptr, ptr, ptr, ptr, ptr, ptr, ptr, ptr, ptr, ptr, ptr, ptr, ptr, ptr, ptr, ptr, ptr, ptr, ptr, ptr, ptr, ptr, ptr, ptr, ptr, ptr, ptr, ptr, ptr, ptr, ptr, ptr, ptr, ptr, ptr, ptr, ptr, ptr, ptr, ptr, ptr, ptr, ptr, ptr, ptr, ptr, ptr, ptr, ptr, ptr, ptr, ptr, ptr, ptr, ptr, ptr, ptr, ptr, ptr, ptr, ptr, ptr, ptr, ptr, ptr, ptr, ptr, ptr, ptr, ptr, ptr, ptr, ptr, ptr, ptr, ptr, ptr, ptr, ptr, ptr, ptr, ptr, ptr, ptr, ptr, ptr, ptr, ptr, ptr, ptr, ptr, ptr, ptr, ptr, ptr, ptr, ptr, ptr, ptr, ptr, ptr, ptr, ptr, ptr, ptr, ptr }
%struct.XdbeSwapInfo = type { i64, i8 }

@tkClass = hidden global ptr null, align 8
@awtLockMID = hidden global ptr null, align 8
@awtUnlockMID = hidden global ptr null, align 8
@awt_display = hidden global ptr null, align 8
@.str.32 = private unnamed_addr constant [23 x i8] c"Could not swap buffers\00", align 1

; Function Attrs: nounwind uwtable
define void @Java_sun_awt_X11GraphicsConfig_swapBuffers(ptr noundef %0, ptr noundef %1, i64 noundef %2, i32 noundef %3) #0 {
  %5 = alloca ptr, align 8
  %6 = alloca ptr, align 8
  %7 = alloca i64, align 8
  %8 = alloca i32, align 4
  %9 = alloca %struct.XdbeSwapInfo, align 8
  %10 = alloca ptr, align 8
  store ptr %0, ptr %5, align 8
  store ptr %1, ptr %6, align 8
  store i64 %2, ptr %7, align 8
  store i32 %3, ptr %8, align 4
  br label %11

11:                                               ; preds = %4
  %12 = load ptr, ptr %5, align 8
  %13 = load ptr, ptr %12, align 8
  %14 = getelementptr inbounds %struct.JNINativeInterface_, ptr %13, i32 0, i32 228
  %15 = load ptr, ptr %14, align 8
  %16 = load ptr, ptr %5, align 8
  %17 = call zeroext i8 %15(ptr noundef %16)
  %18 = icmp ne i8 %17, 0
  br i1 %18, label %19, label %25

19:                                               ; preds = %11
  %20 = load ptr, ptr %5, align 8
  %21 = load ptr, ptr %20, align 8
  %22 = getelementptr inbounds %struct.JNINativeInterface_, ptr %21, i32 0, i32 17
  %23 = load ptr, ptr %22, align 8
  %24 = load ptr, ptr %5, align 8
  call void %23(ptr noundef %24)
  br label %25

25:                                               ; preds = %19, %11
  %26 = load ptr, ptr %5, align 8
  %27 = load ptr, ptr %26, align 8
  %28 = getelementptr inbounds %struct.JNINativeInterface_, ptr %27, i32 0, i32 141
  %29 = load ptr, ptr %28, align 8
  %30 = load ptr, ptr %5, align 8
  %31 = load ptr, ptr @tkClass, align 8
  %32 = load ptr, ptr @awtLockMID, align 8
  call void (ptr, ptr, ptr, ...) %29(ptr noundef %30, ptr noundef %31, ptr noundef %32)
  %33 = load ptr, ptr %5, align 8
  %34 = load ptr, ptr %33, align 8
  %35 = getelementptr inbounds %struct.JNINativeInterface_, ptr %34, i32 0, i32 228
  %36 = load ptr, ptr %35, align 8
  %37 = load ptr, ptr %5, align 8
  %38 = call zeroext i8 %36(ptr noundef %37)
  %39 = icmp ne i8 %38, 0
  br i1 %39, label %40, label %46

40:                                               ; preds = %25
  %41 = load ptr, ptr %5, align 8
  %42 = load ptr, ptr %41, align 8
  %43 = getelementptr inbounds %struct.JNINativeInterface_, ptr %42, i32 0, i32 17
  %44 = load ptr, ptr %43, align 8
  %45 = load ptr, ptr %5, align 8
  call void %44(ptr noundef %45)
  br label %46

46:                                               ; preds = %40, %25
  br label %47

47:                                               ; preds = %46
  %48 = load ptr, ptr @awt_display, align 8
  %49 = call i32 @XdbeBeginIdiom(ptr noundef %48)
  %50 = load i64, ptr %7, align 8
  %51 = getelementptr inbounds %struct.XdbeSwapInfo, ptr %9, i32 0, i32 0
  store i64 %50, ptr %51, align 8
  %52 = load i32, ptr %8, align 4
  %53 = trunc i32 %52 to i8
  %54 = getelementptr inbounds %struct.XdbeSwapInfo, ptr %9, i32 0, i32 1
  store i8 %53, ptr %54, align 8
  %55 = load ptr, ptr @awt_display, align 8
  %56 = call i32 @XdbeSwapBuffers(ptr noundef %55, ptr noundef %9, i32 noundef 1)
  %57 = icmp ne i32 %56, 0
  br i1 %57, label %60, label %58

58:                                               ; preds = %47
  %59 = load ptr, ptr %5, align 8
  call void @JNU_ThrowInternalError(ptr noundef %59, ptr noundef @.str.32)
  br label %60

60:                                               ; preds = %58, %47
  %61 = load ptr, ptr @awt_display, align 8
  %62 = call i32 @XdbeEndIdiom(ptr noundef %61)
  br label %63

63:                                               ; preds = %60
  call void (...) @awt_output_flush()
  br label %64

64:                                               ; preds = %63
  %65 = load ptr, ptr %5, align 8
  %66 = load ptr, ptr %65, align 8
  %67 = getelementptr inbounds %struct.JNINativeInterface_, ptr %66, i32 0, i32 15
  %68 = load ptr, ptr %67, align 8
  %69 = load ptr, ptr %5, align 8
  %70 = call ptr %68(ptr noundef %69)
  store ptr %70, ptr %10, align 8
  %71 = icmp ne ptr %70, null
  br i1 %71, label %72, label %78

72:                                               ; preds = %64
  %73 = load ptr, ptr %5, align 8
  %74 = load ptr, ptr %73, align 8
  %75 = getelementptr inbounds %struct.JNINativeInterface_, ptr %74, i32 0, i32 17
  %76 = load ptr, ptr %75, align 8
  %77 = load ptr, ptr %5, align 8
  call void %76(ptr noundef %77)
  br label %78

78:                                               ; preds = %72, %64
  %79 = load ptr, ptr %5, align 8
  %80 = load ptr, ptr %79, align 8
  %81 = getelementptr inbounds %struct.JNINativeInterface_, ptr %80, i32 0, i32 141
  %82 = load ptr, ptr %81, align 8
  %83 = load ptr, ptr %5, align 8
  %84 = load ptr, ptr @tkClass, align 8
  %85 = load ptr, ptr @awtUnlockMID, align 8
  call void (ptr, ptr, ptr, ...) %82(ptr noundef %83, ptr noundef %84, ptr noundef %85)
  %86 = load ptr, ptr %5, align 8
  %87 = load ptr, ptr %86, align 8
  %88 = getelementptr inbounds %struct.JNINativeInterface_, ptr %87, i32 0, i32 228
  %89 = load ptr, ptr %88, align 8
  %90 = load ptr, ptr %5, align 8
  %91 = call zeroext i8 %89(ptr noundef %90)
  %92 = icmp ne i8 %91, 0
  br i1 %92, label %93, label %99

93:                                               ; preds = %78
  %94 = load ptr, ptr %5, align 8
  %95 = load ptr, ptr %94, align 8
  %96 = getelementptr inbounds %struct.JNINativeInterface_, ptr %95, i32 0, i32 17
  %97 = load ptr, ptr %96, align 8
  %98 = load ptr, ptr %5, align 8
  call void %97(ptr noundef %98)
  br label %99

99:                                               ; preds = %93, %78
  %100 = load ptr, ptr %10, align 8
  %101 = icmp ne ptr %100, null
  br i1 %101, label %102, label %110

102:                                              ; preds = %99
  %103 = load ptr, ptr %5, align 8
  %104 = load ptr, ptr %103, align 8
  %105 = getelementptr inbounds %struct.JNINativeInterface_, ptr %104, i32 0, i32 13
  %106 = load ptr, ptr %105, align 8
  %107 = load ptr, ptr %5, align 8
  %108 = load ptr, ptr %10, align 8
  %109 = call i32 %106(ptr noundef %107, ptr noundef %108)
  br label %110

110:                                              ; preds = %102, %99
  br label %111

111:                                              ; preds = %110
  br label %112

112:                                              ; preds = %111
  ret void
}