; Function Attrs: nounwind uwtable
define void @Java_sun_awt_X11GraphicsConfig_swapBuffers(ptr noundef %0, ptr nocapture noundef readnone %1, i64 noundef %2, i32 noundef %3) local_unnamed_addr #0 {
  %5 = alloca %struct.XdbeSwapInfo, align 8
  %6 = load ptr, ptr %0, align 8
  %7 = getelementptr inbounds i8, ptr %6, i64 1824
  %8 = load ptr, ptr %7, align 8
  %9 = tail call zeroext i8 %8(ptr noundef nonnull %0) #17
  %.not = icmp eq i8 %9, 0
  br i1 %.not, label %14, label %10

10:                                               ; preds = %4
  %11 = load ptr, ptr %0, align 8
  %12 = getelementptr inbounds i8, ptr %11, i64 136
  %13 = load ptr, ptr %12, align 8
  tail call void %13(ptr noundef nonnull %0) #17
  br label %14

14:                                               ; preds = %10, %4
  %15 = load ptr, ptr %0, align 8
  %16 = getelementptr inbounds i8, ptr %15, i64 1128
  %17 = load ptr, ptr %16, align 8
  %18 = load ptr, ptr @tkClass, align 8
  %19 = load ptr, ptr @awtLockMID, align 8
  tail call void (ptr, ptr, ptr, ...) %17(ptr noundef nonnull %0, ptr noundef %18, ptr noundef %19) #17
  %20 = load ptr, ptr %0, align 8
  %21 = getelementptr inbounds i8, ptr %20, i64 1824
  %22 = load ptr, ptr %21, align 8
  %23 = tail call zeroext i8 %22(ptr noundef nonnull %0) #17
  %.not26 = icmp eq i8 %23, 0
  br i1 %.not26, label %28, label %24

24:                                               ; preds = %14
  %25 = load ptr, ptr %0, align 8
  %26 = getelementptr inbounds i8, ptr %25, i64 136
  %27 = load ptr, ptr %26, align 8
  tail call void %27(ptr noundef nonnull %0) #17
  br label %28

28:                                               ; preds = %14, %24
  %29 = load ptr, ptr @awt_display, align 8
  %30 = tail call i32 @XdbeBeginIdiom(ptr noundef %29) #17
  store i64 %2, ptr %5, align 8
  %31 = trunc i32 %3 to i8
  %32 = getelementptr inbounds i8, ptr %5, i64 8
  store i8 %31, ptr %32, align 8
  %33 = load ptr, ptr @awt_display, align 8
  %34 = call i32 @XdbeSwapBuffers(ptr noundef %33, ptr noundef nonnull %5, i32 noundef 1) #17
  %.not27 = icmp eq i32 %34, 0
  br i1 %.not27, label %35, label %36

35:                                               ; preds = %28
  call void @JNU_ThrowInternalError(ptr noundef nonnull %0, ptr noundef nonnull @.str.32) #17
  br label %36

36:                                               ; preds = %35, %28
  %37 = load ptr, ptr @awt_display, align 8
  %38 = call i32 @XdbeEndIdiom(ptr noundef %37) #17
  call void (...) @awt_output_flush() #17
  %39 = load ptr, ptr %0, align 8
  %40 = getelementptr inbounds i8, ptr %39, i64 120
  %41 = load ptr, ptr %40, align 8
  %42 = call ptr %41(ptr noundef nonnull %0) #17
  %.not28 = icmp eq ptr %42, null
  br i1 %.not28, label %47, label %43

43:                                               ; preds = %36
  %44 = load ptr, ptr %0, align 8
  %45 = getelementptr inbounds i8, ptr %44, i64 136
  %46 = load ptr, ptr %45, align 8
  call void %46(ptr noundef nonnull %0) #17
  br label %47

47:                                               ; preds = %43, %36
  %48 = load ptr, ptr %0, align 8
  %49 = getelementptr inbounds i8, ptr %48, i64 1128
  %50 = load ptr, ptr %49, align 8
  %51 = load ptr, ptr @tkClass, align 8
  %52 = load ptr, ptr @awtUnlockMID, align 8
  call void (ptr, ptr, ptr, ...) %50(ptr noundef nonnull %0, ptr noundef %51, ptr noundef %52) #17
  %53 = load ptr, ptr %0, align 8
  %54 = getelementptr inbounds i8, ptr %53, i64 1824
  %55 = load ptr, ptr %54, align 8
  %56 = call zeroext i8 %55(ptr noundef nonnull %0) #17
  %.not29 = icmp eq i8 %56, 0
  br i1 %.not29, label %61, label %57

57:                                               ; preds = %47
  %58 = load ptr, ptr %0, align 8
  %59 = getelementptr inbounds i8, ptr %58, i64 136
  %60 = load ptr, ptr %59, align 8
  call void %60(ptr noundef nonnull %0) #17
  br label %61

61:                                               ; preds = %57, %47
  br i1 %.not28, label %67, label %62

62:                                               ; preds = %61
  %63 = load ptr, ptr %0, align 8
  %64 = getelementptr inbounds i8, ptr %63, i64 104
  %65 = load ptr, ptr %64, align 8
  %66 = call i32 %65(ptr noundef nonnull %0, ptr noundef nonnull %42) #17
  br label %67

67:                                               ; preds = %62, %61
  ret void
}